target datalayout = "e-m:e-p270:32:32-p271:32:32-p272:64:64-i64:64-i128:128-f80:128-n8:16:32:64-S128"
target triple = "x86_64-pc-linux-gnu"

; Function Attrs: mustprogress nounwind uwtable
define noundef i64 @_ZN6duckdb16utf8proc_iterateEPKhlPi(ptr noundef %0, i64 noundef %1, ptr noundef %2) #0 {
  %4 = alloca i64, align 8
  %5 = alloca ptr, align 8
  %6 = alloca i64, align 8
  %7 = alloca ptr, align 8
  %8 = alloca i32, align 4
  %9 = alloca ptr, align 8
  %10 = alloca i32, align 4
  store ptr %0, ptr %5, align 8, !tbaa !7
  store i64 %1, ptr %6, align 8, !tbaa !3
  store ptr %2, ptr %7, align 8, !tbaa !10
  call void @llvm.lifetime.start.p0(i64 4, ptr %8) #6
  call void @llvm.lifetime.start.p0(i64 8, ptr %9) #6
  %11 = load ptr, ptr %7, align 8, !tbaa !10
  store i32 -1, ptr %11, align 4, !tbaa !12
  %12 = load i64, ptr %6, align 8, !tbaa !3
  %13 = icmp ne i64 %12, 0
  br i1 %13, label %15, label %14

14:                                               ; preds = %3
  store i64 0, ptr %4, align 8
  store i32 1, ptr %10, align 4
  br label %187

15:                                               ; preds = %3
  %16 = load ptr, ptr %5, align 8, !tbaa !7
  %17 = load i64, ptr %6, align 8, !tbaa !3
  %18 = icmp slt i64 %17, 0
  br i1 %18, label %19, label %20

19:                                               ; preds = %15
  br label %22

20:                                               ; preds = %15
  %21 = load i64, ptr %6, align 8, !tbaa !3
  br label %22

22:                                               ; preds = %20, %19
  %23 = phi i64 [ 4, %19 ], [ %21, %20 ]
  %24 = getelementptr inbounds i8, ptr %16, i64 %23
  store ptr %24, ptr %9, align 8, !tbaa !7
  %25 = load ptr, ptr %5, align 8, !tbaa !7
  %26 = getelementptr inbounds nuw i8, ptr %25, i32 1
  store ptr %26, ptr %5, align 8, !tbaa !7
  %27 = load i8, ptr %25, align 1, !tbaa !14
  %28 = zext i8 %27 to i32
  store i32 %28, ptr %8, align 4, !tbaa !12
  %29 = load i32, ptr %8, align 4, !tbaa !12
  %30 = icmp slt i32 %29, 128
  br i1 %30, label %31, label %34

31:                                               ; preds = %22
  %32 = load i32, ptr %8, align 4, !tbaa !12
  %33 = load ptr, ptr %7, align 8, !tbaa !10
  store i32 %32, ptr %33, align 4, !tbaa !12
  store i64 1, ptr %4, align 8
  store i32 1, ptr %10, align 4
  br label %187

34:                                               ; preds = %22
  %35 = load i32, ptr %8, align 4, !tbaa !12
  %36 = sub nsw i32 %35, 194
  %37 = icmp ugt i32 %36, 50
  br i1 %37, label %38, label %39

38:                                               ; preds = %34
  store i64 -3, ptr %4, align 8
  store i32 1, ptr %10, align 4
  br label %187

39:                                               ; preds = %34
  %40 = load i32, ptr %8, align 4, !tbaa !12
  %41 = icmp slt i32 %40, 224
  br i1 %41, label %42, label %63

42:                                               ; preds = %39
  %43 = load ptr, ptr %5, align 8, !tbaa !7
  %44 = load ptr, ptr %9, align 8, !tbaa !7
  %45 = icmp uge ptr %43, %44
  br i1 %45, label %52, label %46

46:                                               ; preds = %42
  %47 = load ptr, ptr %5, align 8, !tbaa !7
  %48 = load i8, ptr %47, align 1, !tbaa !14
  %49 = zext i8 %48 to i32
  %50 = and i32 %49, 192
  %51 = icmp eq i32 %50, 128
  br i1 %51, label %53, label %52

52:                                               ; preds = %46, %42
  store i64 -3, ptr %4, align 8
  store i32 1, ptr %10, align 4
  br label %187

53:                                               ; preds = %46
  %54 = load i32, ptr %8, align 4, !tbaa !12
  %55 = and i32 %54, 31
  %56 = shl i32 %55, 6
  %57 = load ptr, ptr %5, align 8, !tbaa !7
  %58 = load i8, ptr %57, align 1, !tbaa !14
  %59 = zext i8 %58 to i32
  %60 = and i32 %59, 63
  %61 = or i32 %56, %60
  %62 = load ptr, ptr %7, align 8, !tbaa !10
  store i32 %61, ptr %62, align 4, !tbaa !12
  store i64 2, ptr %4, align 8
  store i32 1, ptr %10, align 4
  br label %187

63:                                               ; preds = %39
  %64 = load i32, ptr %8, align 4, !tbaa !12
  %65 = icmp slt i32 %64, 240
  br i1 %65, label %66, label %116

66:                                               ; preds = %63
  %67 = load ptr, ptr %5, align 8, !tbaa !7
  %68 = getelementptr inbounds i8, ptr %67, i64 1
  %69 = load ptr, ptr %9, align 8, !tbaa !7
  %70 = icmp uge ptr %68, %69
  br i1 %70, label %84, label %71

71:                                               ; preds = %66
  %72 = load ptr, ptr %5, align 8, !tbaa !7
  %73 = load i8, ptr %72, align 1, !tbaa !14
  %74 = zext i8 %73 to i32
  %75 = and i32 %74, 192
  %76 = icmp eq i32 %75, 128
  br i1 %76, label %77, label %84

77:                                               ; preds = %71
  %78 = load ptr, ptr %5, align 8, !tbaa !7
  %79 = getelementptr inbounds i8, ptr %78, i64 1
  %80 = load i8, ptr %79, align 1, !tbaa !14
  %81 = zext i8 %80 to i32
  %82 = and i32 %81, 192
  %83 = icmp eq i32 %82, 128
  br i1 %83, label %85, label %84

84:                                               ; preds = %77, %71, %66
  store i64 -3, ptr %4, align 8
  store i32 1, ptr %10, align 4
  br label %187

85:                                               ; preds = %77
  %86 = load i32, ptr %8, align 4, !tbaa !12
  %87 = icmp eq i32 %86, 237
  br i1 %87, label %88, label %94

88:                                               ; preds = %85
  %89 = load ptr, ptr %5, align 8, !tbaa !7
  %90 = load i8, ptr %89, align 1, !tbaa !14
  %91 = zext i8 %90 to i32
  %92 = icmp sgt i32 %91, 159
  br i1 %92, label %93, label %94

93:                                               ; preds = %88
  store i64 -3, ptr %4, align 8
  store i32 1, ptr %10, align 4
  br label %187

94:                                               ; preds = %88, %85
  %95 = load i32, ptr %8, align 4, !tbaa !12
  %96 = and i32 %95, 15
  %97 = shl i32 %96, 12
  %98 = load ptr, ptr %5, align 8, !tbaa !7
  %99 = load i8, ptr %98, align 1, !tbaa !14
  %100 = zext i8 %99 to i32
  %101 = and i32 %100, 63
  %102 = shl i32 %101, 6
  %103 = or i32 %97, %102
  %104 = load ptr, ptr %5, align 8, !tbaa !7
  %105 = getelementptr inbounds i8, ptr %104, i64 1
  %106 = load i8, ptr %105, align 1, !tbaa !14
  %107 = zext i8 %106 to i32
  %108 = and i32 %107, 63
  %109 = or i32 %103, %108
  store i32 %109, ptr %8, align 4, !tbaa !12
  %110 = load i32, ptr %8, align 4, !tbaa !12
  %111 = icmp slt i32 %110, 2048
  br i1 %111, label %112, label %113

112:                                              ; preds = %94
  store i64 -3, ptr %4, align 8
  store i32 1, ptr %10, align 4
  br label %187

113:                                              ; preds = %94
  %114 = load i32, ptr %8, align 4, !tbaa !12
  %115 = load ptr, ptr %7, align 8, !tbaa !10
  store i32 %114, ptr %115, align 4, !tbaa !12
  store i64 3, ptr %4, align 8
  store i32 1, ptr %10, align 4
  br label %187

116:                                              ; preds = %63
  %117 = load ptr, ptr %5, align 8, !tbaa !7
  %118 = getelementptr inbounds i8, ptr %117, i64 2
  %119 = load ptr, ptr %9, align 8, !tbaa !7
  %120 = icmp uge ptr %118, %119
  br i1 %120, label %141, label %121

121:                                              ; preds = %116
  %122 = load ptr, ptr %5, align 8, !tbaa !7
  %123 = load i8, ptr %122, align 1, !tbaa !14
  %124 = zext i8 %123 to i32
  %125 = and i32 %124, 192
  %126 = icmp eq i32 %125, 128
  br i1 %126, label %127, label %141

127:                                              ; preds = %121
  %128 = load ptr, ptr %5, align 8, !tbaa !7
  %129 = getelementptr inbounds i8, ptr %128, i64 1
  %130 = load i8, ptr %129, align 1, !tbaa !14
  %131 = zext i8 %130 to i32
  %132 = and i32 %131, 192
  %133 = icmp eq i32 %132, 128
  br i1 %133, label %134, label %141

134:                                              ; preds = %127
  %135 = load ptr, ptr %5, align 8, !tbaa !7
  %136 = getelementptr inbounds i8, ptr %135, i64 2
  %137 = load i8, ptr %136, align 1, !tbaa !14
  %138 = zext i8 %137 to i32
  %139 = and i32 %138, 192
  %140 = icmp eq i32 %139, 128
  br i1 %140, label %142, label %141

141:                                              ; preds = %134, %127, %121, %116
  store i64 -3, ptr %4, align 8
  store i32 1, ptr %10, align 4
  br label %187

142:                                              ; preds = %134
  %143 = load i32, ptr %8, align 4, !tbaa !12
  %144 = icmp eq i32 %143, 240
  br i1 %144, label %145, label %152

145:                                              ; preds = %142
  %146 = load ptr, ptr %5, align 8, !tbaa !7
  %147 = load i8, ptr %146, align 1, !tbaa !14
  %148 = zext i8 %147 to i32
  %149 = icmp slt i32 %148, 144
  br i1 %149, label %150, label %151

150:                                              ; preds = %145
  store i64 -3, ptr %4, align 8
  store i32 1, ptr %10, align 4
  br label %187

151:                                              ; preds = %145
  br label %163

152:                                              ; preds = %142
  %153 = load i32, ptr %8, align 4, !tbaa !12
  %154 = icmp eq i32 %153, 244
  br i1 %154, label %155, label %162

155:                                              ; preds = %152
  %156 = load ptr, ptr %5, align 8, !tbaa !7
  %157 = load i8, ptr %156, align 1, !tbaa !14
  %158 = zext i8 %157 to i32
  %159 = icmp sgt i32 %158, 143
  br i1 %159, label %160, label %161

160:                                              ; preds = %155
  store i64 -3, ptr %4, align 8
  store i32 1, ptr %10, align 4
  br label %187

161:                                              ; preds = %155
  br label %162

162:                                              ; preds = %161, %152
  br label %163

163:                                              ; preds = %162, %151
  %164 = load i32, ptr %8, align 4, !tbaa !12
  %165 = and i32 %164, 7
  %166 = shl i32 %165, 18
  %167 = load ptr, ptr %5, align 8, !tbaa !7
  %168 = load i8, ptr %167, align 1, !tbaa !14
  %169 = zext i8 %168 to i32
  %170 = and i32 %169, 63
  %171 = shl i32 %170, 12
  %172 = or i32 %166, %171
  %173 = load ptr, ptr %5, align 8, !tbaa !7
  %174 = getelementptr inbounds i8, ptr %173, i64 1
  %175 = load i8, ptr %174, align 1, !tbaa !14
  %176 = zext i8 %175 to i32
  %177 = and i32 %176, 63
  %178 = shl i32 %177, 6
  %179 = or i32 %172, %178
  %180 = load ptr, ptr %5, align 8, !tbaa !7
  %181 = getelementptr inbounds i8, ptr %180, i64 2
  %182 = load i8, ptr %181, align 1, !tbaa !14
  %183 = zext i8 %182 to i32
  %184 = and i32 %183, 63
  %185 = or i32 %179, %184
  %186 = load ptr, ptr %7, align 8, !tbaa !10
  store i32 %185, ptr %186, align 4, !tbaa !12
  store i64 4, ptr %4, align 8
  store i32 1, ptr %10, align 4
  br label %187

187:                                              ; preds = %163, %160, %150, %141, %113, %112, %93, %84, %53, %52, %38, %31, %14
  call void @llvm.lifetime.end.p0(i64 8, ptr %9) #6
  call void @llvm.lifetime.end.p0(i64 4, ptr %8) #6
  %188 = load i64, ptr %4, align 8
  ret i64 %188
}