; Function Attrs: mustprogress nofree norecurse nosync nounwind willreturn memory(argmem: readwrite) uwtable
define noundef range(i64 -3, 5) i64 @_ZN6duckdb16utf8proc_iterateEPKhlPi(ptr noundef readonly captures(none) %0, i64 noundef %1, ptr noundef writeonly captures(none) initializes((0, 4)) %2) local_unnamed_addr #1 {
  store i32 -1, ptr %2, align 4, !tbaa !3
  %.not = icmp eq i64 %1, 0
  br i1 %.not, label %83, label %4

4:                                                ; preds = %3
  %5 = icmp slt i64 %1, 0
  %6 = select i1 %5, i64 4, i64 %1
  %7 = getelementptr inbounds nuw i8, ptr %0, i64 1
  %8 = load i8, ptr %0, align 1, !tbaa !7
  %9 = zext i8 %8 to i32
  %10 = icmp sgt i8 %8, -1
  br i1 %10, label %.sink.split, label %11

11:                                               ; preds = %4
  %12 = add nsw i32 %9, -245
  %13 = icmp ult i32 %12, -51
  br i1 %13, label %83, label %14

14:                                               ; preds = %11
  %15 = icmp samesign ult i8 %8, -32
  br i1 %15, label %16, label %27

16:                                               ; preds = %14
  %.not52 = icmp samesign ugt i64 %6, 1
  br i1 %.not52, label %17, label %83

17:                                               ; preds = %16
  %18 = load i8, ptr %7, align 1, !tbaa !7
  %19 = zext i8 %18 to i32
  %20 = and i32 %19, 192
  %21 = icmp eq i32 %20, 128
  br i1 %21, label %22, label %83

22:                                               ; preds = %17
  %23 = shl nuw nsw i32 %9, 6
  %24 = and i32 %23, 1984
  %25 = and i32 %19, 63
  %26 = or disjoint i32 %25, %24
  br label %.sink.split

27:                                               ; preds = %14
  %28 = icmp samesign ult i8 %8, -16
  br i1 %28, label %29, label %52

29:                                               ; preds = %27
  %30 = getelementptr inbounds nuw i8, ptr %0, i64 2
  %.not51 = icmp samesign ugt i64 %6, 2
  br i1 %.not51, label %31, label %83

31:                                               ; preds = %29
  %32 = load i8, ptr %7, align 1, !tbaa !7
  %33 = icmp slt i8 %32, -64
  br i1 %33, label %34, label %83

34:                                               ; preds = %31
  %35 = load i8, ptr %30, align 1, !tbaa !7
  %36 = icmp slt i8 %35, -64
  br i1 %36, label %37, label %83

37:                                               ; preds = %34
  %38 = icmp eq i8 %8, -19
  %39 = icmp samesign ugt i8 %32, -97
  %or.cond = and i1 %38, %39
  br i1 %or.cond, label %83, label %40

40:                                               ; preds = %37
  %41 = shl nuw nsw i32 %9, 12
  %42 = and i32 %41, 61440
  %43 = and i8 %32, 63
  %44 = zext nneg i8 %43 to i32
  %45 = shl nuw nsw i32 %44, 6
  %46 = or disjoint i32 %45, %42
  %47 = icmp samesign ult i32 %46, 2048
  br i1 %47, label %83, label %48

48:                                               ; preds = %40
  %49 = and i8 %35, 63
  %50 = zext nneg i8 %49 to i32
  %51 = or disjoint i32 %46, %50
  br label %.sink.split

52:                                               ; preds = %27
  %53 = getelementptr inbounds nuw i8, ptr %0, i64 3
  %.not50 = icmp samesign ugt i64 %6, 3
  br i1 %.not50, label %54, label %83

54:                                               ; preds = %52
  %55 = load i8, ptr %7, align 1, !tbaa !7
  %56 = icmp slt i8 %55, -64
  br i1 %56, label %57, label %83

57:                                               ; preds = %54
  %58 = getelementptr inbounds nuw i8, ptr %0, i64 2
  %59 = load i8, ptr %58, align 1, !tbaa !7
  %60 = icmp slt i8 %59, -64
  br i1 %60, label %61, label %83

61:                                               ; preds = %57
  %62 = load i8, ptr %53, align 1, !tbaa !7
  %63 = icmp slt i8 %62, -64
  br i1 %63, label %64, label %83

64:                                               ; preds = %61
  switch i8 %8, label %69 [
    i8 -16, label %65
    i8 -12, label %67
  ]

65:                                               ; preds = %64
  %66 = icmp samesign ult i8 %55, -112
  br i1 %66, label %83, label %69

67:                                               ; preds = %64
  %68 = icmp samesign ugt i8 %55, -113
  br i1 %68, label %83, label %69

69:                                               ; preds = %64, %67, %65
  %70 = shl nuw nsw i32 %9, 18
  %71 = and i32 %70, 1835008
  %72 = and i8 %55, 63
  %73 = zext nneg i8 %72 to i32
  %74 = shl nuw nsw i32 %73, 12
  %75 = or disjoint i32 %74, %71
  %76 = and i8 %59, 63
  %77 = zext nneg i8 %76 to i32
  %78 = shl nuw nsw i32 %77, 6
  %79 = or disjoint i32 %78, %75
  %80 = and i8 %62, 63
  %81 = zext nneg i8 %80 to i32
  %82 = or disjoint i32 %79, %81
  br label %.sink.split

.sink.split:                                      ; preds = %4, %22, %48, %69
  %.sink = phi i32 [ %82, %69 ], [ %51, %48 ], [ %26, %22 ], [ %9, %4 ]
  %.0.ph = phi i64 [ 4, %69 ], [ 3, %48 ], [ 2, %22 ], [ 1, %4 ]
  store i32 %.sink, ptr %2, align 4, !tbaa !3
  br label %83

83:                                               ; preds = %.sink.split, %67, %65, %52, %54, %57, %61, %40, %37, %29, %31, %34, %16, %17, %11, %3
  %.0 = phi i64 [ 0, %3 ], [ -3, %11 ], [ -3, %17 ], [ -3, %16 ], [ -3, %34 ], [ -3, %31 ], [ -3, %29 ], [ -3, %37 ], [ -3, %40 ], [ -3, %61 ], [ -3, %57 ], [ -3, %54 ], [ -3, %52 ], [ -3, %65 ], [ -3, %67 ], [ %.0.ph, %.sink.split ]
  ret i64 %.0
}